target datalayout = "e-m:e-p270:32:32-p271:32:32-p272:64:64-i64:64-i128:128-f80:128-n8:16:32:64-S128"
target triple = "x86_64-pc-linux-gnu"

%struct.H5FD_onion_index_entry_t = type { i64, i64 }
%struct.H5FD_onion_revision_index_t = type { i8, i32, i64, i64, i64, i64, ptr }
%struct.H5FD_onion_revision_index_hash_chain_node_t = type { i8, %struct.H5FD_onion_index_entry_t, ptr }

@H5FD_init_g = external global i8, align 1
@H5_libterm_g = external global i8, align 1

; Function Attrs: nounwind uwtable
define i32 @H5FD__onion_revision_index_find(ptr noundef %0, i64 noundef %1, ptr noundef %2) #0 {
  %4 = alloca ptr, align 8
  %5 = alloca i64, align 8
  %6 = alloca ptr, align 8
  %7 = alloca i64, align 8
  %8 = alloca i32, align 4
  %9 = alloca ptr, align 8
  store ptr %0, ptr %4, align 8, !tbaa !65
  store i64 %1, ptr %5, align 8, !tbaa !12
  store ptr %2, ptr %6, align 8, !tbaa !62
  call void @llvm.lifetime.start.p0(i64 8, ptr %7) #9
  store i64 0, ptr %7, align 8, !tbaa !12
  call void @llvm.lifetime.start.p0(i64 4, ptr %8) #9
  store i32 0, ptr %8, align 4, !tbaa !16
  %10 = load i8, ptr @H5FD_init_g, align 1, !tbaa !18, !range !20, !noundef !21
  %11 = trunc i8 %10 to i1
  br i1 %11, label %16, label %12

12:                                               ; preds = %3
  %13 = load i8, ptr @H5_libterm_g, align 1, !tbaa !18, !range !20, !noundef !21
  %14 = trunc i8 %13 to i1
  %15 = xor i1 %14, true
  br label %16

16:                                               ; preds = %12, %3
  %17 = phi i1 [ true, %3 ], [ %15, %12 ]
  %18 = xor i1 %17, true
  %19 = xor i1 %18, true
  %20 = zext i1 %19 to i32
  %21 = sext i32 %20 to i64
  %22 = call i64 @llvm.expect.i64(i64 %21, i64 1)
  %23 = icmp ne i64 %22, 0
  br i1 %23, label %24, label %66

24:                                               ; preds = %16
  %25 = load i64, ptr %5, align 8, !tbaa !12
  %26 = load ptr, ptr %4, align 8, !tbaa !65
  %27 = getelementptr inbounds nuw %struct.H5FD_onion_revision_index_t, ptr %26, i32 0, i32 3
  %28 = load i64, ptr %27, align 8, !tbaa !70
  %29 = sub i64 %28, 1
  %30 = and i64 %25, %29
  store i64 %30, ptr %7, align 8, !tbaa !12
  %31 = load ptr, ptr %4, align 8, !tbaa !65
  %32 = getelementptr inbounds nuw %struct.H5FD_onion_revision_index_t, ptr %31, i32 0, i32 6
  %33 = load ptr, ptr %32, align 8, !tbaa !73
  %34 = load i64, ptr %7, align 8, !tbaa !12
  %35 = getelementptr inbounds nuw ptr, ptr %33, i64 %34
  %36 = load ptr, ptr %35, align 8, !tbaa !71
  %37 = icmp ne ptr %36, null
  br i1 %37, label %38, label %65

38:                                               ; preds = %24
  call void @llvm.lifetime.start.p0(i64 8, ptr %9) #9
  store ptr null, ptr %9, align 8, !tbaa !71
  %39 = load ptr, ptr %4, align 8, !tbaa !65
  %40 = getelementptr inbounds nuw %struct.H5FD_onion_revision_index_t, ptr %39, i32 0, i32 6
  %41 = load ptr, ptr %40, align 8, !tbaa !73
  %42 = load i64, ptr %7, align 8, !tbaa !12
  %43 = getelementptr inbounds nuw ptr, ptr %41, i64 %42
  %44 = load ptr, ptr %43, align 8, !tbaa !71
  store ptr %44, ptr %9, align 8, !tbaa !71
  br label %45

45:                                               ; preds = %60, %38
  %46 = load ptr, ptr %9, align 8, !tbaa !71
  %47 = icmp ne ptr %46, null
  br i1 %47, label %48, label %64

48:                                               ; preds = %45
  %49 = load i64, ptr %5, align 8, !tbaa !12
  %50 = load ptr, ptr %9, align 8, !tbaa !71
  %51 = getelementptr inbounds nuw %struct.H5FD_onion_revision_index_hash_chain_node_t, ptr %50, i32 0, i32 1
  %52 = getelementptr inbounds nuw %struct.H5FD_onion_index_entry_t, ptr %51, i32 0, i32 0
  %53 = load i64, ptr %52, align 8, !tbaa !84
  %54 = icmp eq i64 %49, %53
  br i1 %54, label %55, label %59

55:                                               ; preds = %48
  %56 = load ptr, ptr %9, align 8, !tbaa !71
  %57 = getelementptr inbounds nuw %struct.H5FD_onion_revision_index_hash_chain_node_t, ptr %56, i32 0, i32 1
  %58 = load ptr, ptr %6, align 8, !tbaa !62
  store ptr %57, ptr %58, align 8, !tbaa !49
  store i32 1, ptr %8, align 4, !tbaa !16
  br label %64

59:                                               ; preds = %48
  br label %60

60:                                               ; preds = %59
  %61 = load ptr, ptr %9, align 8, !tbaa !71
  %62 = getelementptr inbounds nuw %struct.H5FD_onion_revision_index_hash_chain_node_t, ptr %61, i32 0, i32 2
  %63 = load ptr, ptr %62, align 8, !tbaa !74
  store ptr %63, ptr %9, align 8, !tbaa !71
  br label %45, !llvm.loop !90

64:                                               ; preds = %55, %45
  call void @llvm.lifetime.end.p0(i64 8, ptr %9) #9
  br label %65

65:                                               ; preds = %64, %24
  br label %66

66:                                               ; preds = %65, %16
  %67 = load i32, ptr %8, align 4, !tbaa !16
  call void @llvm.lifetime.end.p0(i64 4, ptr %8) #9
  call void @llvm.lifetime.end.p0(i64 8, ptr %7) #9
  ret i32 %67
}