; Function Attrs: nofree norecurse nosync nounwind memory(read, argmem: readwrite, inaccessiblemem: none) uwtable
define range(i32 0, 2) i32 @H5FD__onion_revision_index_find(ptr noundef readonly captures(none) %0, i64 noundef %1, ptr noundef writeonly captures(none) %2) local_unnamed_addr #8 {
  %4 = load i8, ptr @H5FD_init_g, align 1, !tbaa !3, !range !7, !noundef !8
  %5 = trunc nuw i8 %4 to i1
  %6 = load i8, ptr @H5_libterm_g, align 1, !range !7
  %7 = trunc nuw i8 %6 to i1
  %8 = xor i1 %7, true
  %9 = select i1 %5, i1 true, i1 %8
  br i1 %9, label %10, label %.loopexit, !prof !9

10:                                               ; preds = %3
  %11 = getelementptr inbounds nuw i8, ptr %0, i64 16
  %12 = load i64, ptr %11, align 8, !tbaa !61
  %13 = add i64 %12, -1
  %14 = and i64 %13, %1
  %15 = getelementptr inbounds nuw i8, ptr %0, i64 40
  %16 = load ptr, ptr %15, align 8, !tbaa !62
  %17 = getelementptr inbounds nuw ptr, ptr %16, i64 %14
  %18 = load ptr, ptr %17, align 8, !tbaa !63
  %.not = icmp eq ptr %18, null
  br i1 %.not, label %.loopexit, label %.preheader

.preheader:                                       ; preds = %10, %24
  %.015 = phi ptr [ %26, %24 ], [ %18, %10 ]
  %19 = getelementptr inbounds nuw i8, ptr %.015, i64 8
  %20 = load i64, ptr %19, align 8, !tbaa !74
  %21 = icmp eq i64 %1, %20
  br i1 %21, label %22, label %24

22:                                               ; preds = %.preheader
  %23 = getelementptr inbounds nuw i8, ptr %.015, i64 8
  store ptr %23, ptr %2, align 8, !tbaa !46
  br label %.loopexit

24:                                               ; preds = %.preheader
  %25 = getelementptr inbounds nuw i8, ptr %.015, i64 24
  %26 = load ptr, ptr %25, align 8, !tbaa !65
  %.not14 = icmp eq ptr %26, null
  br i1 %.not14, label %.loopexit, label %.preheader, !llvm.loop !80

.loopexit:                                        ; preds = %24, %22, %10, %3
  %.012 = phi i32 [ 0, %10 ], [ 0, %3 ], [ 1, %22 ], [ 0, %24 ]
  ret i32 %.012
}